target datalayout = "e-m:e-p270:32:32-p271:32:32-p272:64:64-i64:64-i128:128-f80:128-n8:16:32:64-S128"
target triple = "x86_64-pc-linux-gnu"

%struct.timeval = type { i64, i64 }

; Function Attrs: nounwind uwtable
define i32 @bufferevent_add_event_(ptr noundef %0, ptr noundef %1) #0 {
  %3 = alloca i32, align 4
  %4 = alloca ptr, align 8
  %5 = alloca ptr, align 8
  store ptr %0, ptr %4, align 8
  store ptr %1, ptr %5, align 8
  %6 = load ptr, ptr %5, align 8
  %7 = getelementptr inbounds nuw %struct.timeval, ptr %6, i32 0, i32 0
  %8 = load i64, ptr %7, align 8
  %9 = icmp ne i64 %8, 0
  br i1 %9, label %18, label %10

10:                                               ; preds = %2
  %11 = load ptr, ptr %5, align 8
  %12 = getelementptr inbounds nuw %struct.timeval, ptr %11, i32 0, i32 1
  %13 = load i64, ptr %12, align 8
  %14 = icmp ne i64 %13, 0
  br i1 %14, label %18, label %15

15:                                               ; preds = %10
  %16 = load ptr, ptr %4, align 8
  %17 = call i32 @event_add(ptr noundef %16, ptr noundef null)
  store i32 %17, ptr %3, align 4
  br label %22

18:                                               ; preds = %10, %2
  %19 = load ptr, ptr %4, align 8
  %20 = load ptr, ptr %5, align 8
  %21 = call i32 @event_add(ptr noundef %19, ptr noundef %20)
  store i32 %21, ptr %3, align 4
  br label %22

22:                                               ; preds = %18, %15
  %23 = load i32, ptr %3, align 4
  ret i32 %23
}