; Function Attrs: nounwind uwtable
define i32 @bufferevent_add_event_(ptr noundef %0, ptr noundef %1) local_unnamed_addr #0 {
  %3 = load i64, ptr %1, align 8
  %.not = icmp eq i64 %3, 0
  br i1 %.not, label %4, label %7

4:                                                ; preds = %2
  %5 = getelementptr inbounds nuw i8, ptr %1, i64 8
  %6 = load i64, ptr %5, align 8
  %.not5 = icmp eq i64 %6, 0
  br i1 %.not5, label %8, label %7

7:                                                ; preds = %4, %2
  br label %8

8:                                                ; preds = %4, %7
  %.sink = phi ptr [ %1, %7 ], [ null, %4 ]
  %9 = tail call i32 @event_add(ptr noundef %0, ptr noundef %.sink) #7
  ret i32 %9
}